target datalayout = "e-m:e-p270:32:32-p271:32:32-p272:64:64-i64:64-i128:128-f80:128-n8:16:32:64-S128"
target triple = "x86_64-unknown-linux-gnu"

%"struct.std::pair" = type { i8, i8 }
%"class.std::__cxx11::basic_string" = type { %"struct.std::__cxx11::basic_string<char>::_Alloc_hider", i64, %union.anon }
%"struct.std::__cxx11::basic_string<char>::_Alloc_hider" = type { ptr }
%union.anon = type { i64, [8 x i8] }
%"class.std::unique_ptr.24" = type { %"struct.std::__uniq_ptr_data.25" }
%"struct.std::__uniq_ptr_data.25" = type { %"class.std::__uniq_ptr_impl.26" }
%"class.std::__uniq_ptr_impl.26" = type { %"class.std::tuple.27" }
%"class.std::tuple.27" = type { %"struct.std::_Tuple_impl.28" }
%"struct.std::_Tuple_impl.28" = type { %"struct.std::_Head_base.31" }
%"struct.std::_Head_base.31" = type { ptr }
%"class.proxygen::HTTPMessage" = type { %"class.std::chrono::time_point", %"class.folly::SocketAddress", %"class.std::__cxx11::basic_string", %"class.std::__cxx11::basic_string", %"class.std::__cxx11::basic_string", %"class.std::__cxx11::basic_string", %"struct.proxygen::HTTPMessage::Fields", %"class.std::map", %"class.std::map.8", %"class.proxygen::HTTPHeaders", %"class.std::unique_ptr.24", %"struct.proxygen::HTTPHeaderSize", i32, %"class.std::unique_ptr.24", i32, i32, ptr, ptr, %"class.std::unique_ptr", i8, [7 x i8], %"class.folly::Optional.32", %"struct.std::pair", i8, i32 }
%"class.std::chrono::time_point" = type { %"class.std::chrono::duration" }
%"class.std::chrono::duration" = type { i64 }
%"class.folly::SocketAddress" = type <{ %"union.folly::SocketAddress::AddrStorage", i16, i8, [5 x i8] }>
%"union.folly::SocketAddress::AddrStorage" = type { %"struct.folly::SocketAddress::ExternalUnixAddr", [8 x i8] }
%"struct.folly::SocketAddress::ExternalUnixAddr" = type { ptr, i32 }
%"struct.proxygen::HTTPMessage::Fields" = type { i8, %"union.proxygen::HTTPMessage::Fields::Data" }
%"union.proxygen::HTTPMessage::Fields::Data" = type { %"struct.proxygen::HTTPMessage::Response", [136 x i8] }
%"struct.proxygen::HTTPMessage::Response" = type { i16, %"class.std::__cxx11::basic_string", %"class.std::__cxx11::basic_string" }
%"class.std::map" = type { %"class.std::_Rb_tree" }
%"class.std::_Rb_tree" = type { %"struct.std::_Rb_tree<folly::Range<const char *>, std::pair<const folly::Range<const char *>, folly::Range<const char *>>, std::_Select1st<std::pair<const folly::Range<const char *>, folly::Range<const char *>>>, std::less<folly::Range<const char *>>>::_Rb_tree_impl" }
%"struct.std::_Rb_tree<folly::Range<const char *>, std::pair<const folly::Range<const char *>, folly::Range<const char *>>, std::_Select1st<std::pair<const folly::Range<const char *>, folly::Range<const char *>>>, std::less<folly::Range<const char *>>>::_Rb_tree_impl" = type { %"struct.std::_Rb_tree_key_compare", %"struct.std::_Rb_tree_header" }
%"struct.std::_Rb_tree_key_compare" = type { %"struct.std::less" }
%"struct.std::less" = type { i8 }
%"struct.std::_Rb_tree_header" = type { %"struct.std::_Rb_tree_node_base", i64 }
%"struct.std::_Rb_tree_node_base" = type { i32, ptr, ptr, ptr }
%"class.std::map.8" = type { %"class.std::_Rb_tree.9" }
%"class.std::_Rb_tree.9" = type { %"struct.std::_Rb_tree<std::__cxx11::basic_string<char>, std::pair<const std::__cxx11::basic_string<char>, std::__cxx11::basic_string<char>>, std::_Select1st<std::pair<const std::__cxx11::basic_string<char>, std::__cxx11::basic_string<char>>>, std::less<std::__cxx11::basic_string<char>>>::_Rb_tree_impl" }
%"struct.std::_Rb_tree<std::__cxx11::basic_string<char>, std::pair<const std::__cxx11::basic_string<char>, std::__cxx11::basic_string<char>>, std::_Select1st<std::pair<const std::__cxx11::basic_string<char>, std::__cxx11::basic_string<char>>>, std::less<std::__cxx11::basic_string<char>>>::_Rb_tree_impl" = type { %"struct.std::_Rb_tree_key_compare.13", %"struct.std::_Rb_tree_header" }
%"struct.std::_Rb_tree_key_compare.13" = type { %"struct.std::less.14" }
%"struct.std::less.14" = type { i8 }
%"class.proxygen::HTTPHeaders" = type { %"class.std::unique_ptr.16", i64, i64, i64 }
%"class.std::unique_ptr.16" = type { %"struct.std::__uniq_ptr_data.17" }
%"struct.std::__uniq_ptr_data.17" = type { %"class.std::__uniq_ptr_impl.18" }
%"class.std::__uniq_ptr_impl.18" = type { %"class.std::tuple.19" }
%"class.std::tuple.19" = type { %"struct.std::_Tuple_impl.20" }
%"struct.std::_Tuple_impl.20" = type { %"struct.std::_Head_base.23" }
%"struct.std::_Head_base.23" = type { ptr }
%"struct.proxygen::HTTPHeaderSize" = type { i32, i32, i32 }
%"class.std::unique_ptr" = type { %"struct.std::__uniq_ptr_data" }
%"struct.std::__uniq_ptr_data" = type { %"class.std::__uniq_ptr_impl" }
%"class.std::__uniq_ptr_impl" = type { %"class.std::tuple" }
%"class.std::tuple" = type { %"struct.std::_Tuple_impl" }
%"struct.std::_Tuple_impl" = type { %"struct.std::_Head_base.4" }
%"struct.std::_Head_base.4" = type { ptr }
%"class.folly::Optional.32" = type { %"struct.folly::Optional<std::tuple<unsigned long, bool, unsigned char>>::StorageTriviallyDestructible" }
%"struct.folly::Optional<std::tuple<unsigned long, bool, unsigned char>>::StorageTriviallyDestructible" = type <{ %union.anon.33, i8, [7 x i8] }>
%union.anon.33 = type { %"class.std::tuple.34" }
%"class.std::tuple.34" = type { %"struct.std::_Tuple_impl.35" }
%"struct.std::_Tuple_impl.35" = type { %"struct.std::_Tuple_impl.36", %"struct.std::_Head_base.40" }
%"struct.std::_Tuple_impl.36" = type { %"struct.std::_Tuple_impl.37", %"struct.std::_Head_base.39" }
%"struct.std::_Tuple_impl.37" = type { %"struct.std::_Head_base.38" }
%"struct.std::_Head_base.38" = type { i8 }
%"struct.std::_Head_base.39" = type { i8 }
%"struct.std::_Head_base.40" = type { i64 }
%"class.folly::Range" = type { ptr, ptr }

@.str.9 = private unnamed_addr constant [11 x i8] c"text/plain\00", align 1

; Function Attrs: mustprogress nounwind uwtable
define linkonce_odr noundef i64 @_ZN5folly6detail25constexpr_strlen_internalIcLm0EEEmPKT_i(ptr noundef %s, i32 noundef %0) #4 comdat {
entry:
  %s.addr = alloca ptr, align 8
  %.addr = alloca i32, align 4
  store ptr %s, ptr %s.addr, align 8
  store i32 %0, ptr %.addr, align 4
  %1 = load ptr, ptr %s.addr, align 8
  %call = call i64 @strlen(ptr noundef %1) #2
  ret i64 %call
}

; Function Attrs: mustprogress uwtable
define linkonce_odr void @_ZN8proxygen11HTTPHeaders12emplace_backIN5folly5RangeIPKcEEEENSt9enable_ifIXaantsr3std7is_sameIT_RKNSt7__cxx1112basic_stringIcSt11char_traitsIcESaIcEEEEE5valuentsr3std7is_sameIS8_OSE_EE5valueEvE4typeENS_14HTTPHeaderCodeEPSE_OS8_(ptr noundef nonnull align 8 dereferenceable(32) %this, i8 noundef zeroext %code, ptr noundef %name, ptr noundef nonnull align 8 dereferenceable(16) %value) #3 comdat align 2 {
entry:
  %this.addr = alloca ptr, align 8
  %code.addr = alloca i8, align 1
  %name.addr = alloca ptr, align 8
  %value.addr = alloca ptr, align 8
  store ptr %this, ptr %this.addr, align 8
  store i8 %code, ptr %code.addr, align 1
  store ptr %name, ptr %name.addr, align 8
  store ptr %value, ptr %value.addr, align 8
  %this1 = load ptr, ptr %this.addr, align 8
  %0 = load i8, ptr %code.addr, align 1
  %1 = load ptr, ptr %name.addr, align 8
  %2 = load ptr, ptr %value.addr, align 8
  call void @_ZN8proxygen11HTTPHeaders17emplace_back_implIN5folly5RangeIPKcEEEEvNS_14HTTPHeaderCodeEPNSt7__cxx1112basic_stringIcSt11char_traitsIcESaIcEEEOT_(ptr noundef nonnull align 8 dereferenceable(32) %this1, i8 noundef zeroext %0, ptr noundef %1, ptr noundef nonnull align 8 dereferenceable(16) %2)
  ret void
}

; Function Attrs: mustprogress uwtable
define linkonce_odr noundef ptr @_ZN8proxygen17HTTPCommonHeaders16getPointerToNameB5cxx11ENS_14HTTPHeaderCodeENS_25HTTPCommonHeaderTableTypeE(i8 noundef zeroext %code, i8 noundef zeroext %type) #3 comdat align 2 {
entry:
  %code.addr = alloca i8, align 1
  %type.addr = alloca i8, align 1
  store i8 %code, ptr %code.addr, align 1
  store i8 %type, ptr %type.addr, align 1
  %0 = load i8, ptr %type.addr, align 1
  %call = call noundef ptr @_ZN8proxygen17HTTPCommonHeaders17getPointerToTableB5cxx11ENS_25HTTPCommonHeaderTableTypeE(i8 noundef zeroext %0)
  %1 = load i8, ptr %code.addr, align 1
  %conv = zext i8 %1 to i32
  %idx.ext = sext i32 %conv to i64
  %add.ptr = getelementptr inbounds %"class.std::__cxx11::basic_string", ptr %call, i64 %idx.ext
  ret ptr %add.ptr
}

; Function Attrs: mustprogress nounwind uwtable
define linkonce_odr noundef i64 @_ZN5folly16constexpr_strlenIcEEmPKT_(ptr noundef %s) #4 comdat {
entry:
  %s.addr = alloca ptr, align 8
  store ptr %s, ptr %s.addr, align 8
  %0 = load ptr, ptr %s.addr, align 8
  %call = call noundef i64 @_ZN5folly6detail25constexpr_strlen_internalIcLm0EEEmPKT_i(ptr noundef %0, i32 noundef 0) #2
  ret i64 %call
}

; Function Attrs: mustprogress uwtable
define linkonce_odr void @_ZN8proxygen11HTTPHeaders3addIN5folly5RangeIPKcEEEEvNS_14HTTPHeaderCodeEOT_(ptr noundef nonnull align 8 dereferenceable(32) %this, i8 noundef zeroext %code, ptr noundef nonnull align 8 dereferenceable(16) %value) #3 comdat align 2 {
entry:
  %this.addr = alloca ptr, align 8
  %code.addr = alloca i8, align 1
  %value.addr = alloca ptr, align 8
  %namePtr = alloca ptr, align 8
  store ptr %this, ptr %this.addr, align 8
  store i8 %code, ptr %code.addr, align 1
  store ptr %value, ptr %value.addr, align 8
  %this1 = load ptr, ptr %this.addr, align 8
  %0 = load i8, ptr %code.addr, align 1
  %call = call noundef ptr @_ZN8proxygen17HTTPCommonHeaders16getPointerToNameB5cxx11ENS_14HTTPHeaderCodeENS_25HTTPCommonHeaderTableTypeE(i8 noundef zeroext %0, i8 noundef zeroext 0)
  store ptr %call, ptr %namePtr, align 8
  %1 = load i8, ptr %code.addr, align 1
  %2 = load ptr, ptr %namePtr, align 8
  %3 = load ptr, ptr %value.addr, align 8
  call void @_ZN8proxygen11HTTPHeaders12emplace_backIN5folly5RangeIPKcEEEENSt9enable_ifIXaantsr3std7is_sameIT_RKNSt7__cxx1112basic_stringIcSt11char_traitsIcESaIcEEEEE5valuentsr3std7is_sameIS8_OSE_EE5valueEvE4typeENS_14HTTPHeaderCodeEPSE_OS8_(ptr noundef nonnull align 8 dereferenceable(32) %this1, i8 noundef zeroext %1, ptr noundef %2, ptr noundef nonnull align 8 dereferenceable(16) %3)
  ret void
}

; Function Attrs: mustprogress nounwind uwtable
define linkonce_odr void @_ZN5folly5RangeIPKcEC2ES2_(ptr noundef nonnull align 8 dereferenceable(16) %this, ptr noundef %str) unnamed_addr #4 comdat align 2 {
entry:
  %this.addr = alloca ptr, align 8
  %str.addr = alloca ptr, align 8
  store ptr %this, ptr %this.addr, align 8
  store ptr %str, ptr %str.addr, align 8
  %this1 = load ptr, ptr %this.addr, align 8
  %b_ = getelementptr inbounds %"class.folly::Range", ptr %this1, i32 0, i32 0
  %0 = load ptr, ptr %str.addr, align 8
  store ptr %0, ptr %b_, align 8
  %e_ = getelementptr inbounds %"class.folly::Range", ptr %this1, i32 0, i32 1
  %1 = load ptr, ptr %str.addr, align 8
  %2 = load ptr, ptr %str.addr, align 8
  %call = call noundef i64 @_ZN5folly16constexpr_strlenIcEEmPKT_(ptr noundef %2) #2
  %add.ptr = getelementptr inbounds i8, ptr %1, i64 %call
  store ptr %add.ptr, ptr %e_, align 8
  ret void
}

; Function Attrs: mustprogress nounwind uwtable
define linkonce_odr void @_ZN8proxygen11HTTPMessage13setIsUpgradedEb(ptr noundef nonnull align 8 dereferenceable(616) %this, i1 noundef zeroext %upgraded) #4 comdat align 2 {
entry:
  %this.addr = alloca ptr, align 8
  %upgraded.addr = alloca i8, align 1
  store ptr %this, ptr %this.addr, align 8
  %frombool = zext i1 %upgraded to i8
  store i8 %frombool, ptr %upgraded.addr, align 1
  %this1 = load ptr, ptr %this.addr, align 8
  %0 = load i8, ptr %upgraded.addr, align 1
  %tobool = trunc i8 %0 to i1
  %upgraded_ = getelementptr inbounds %"class.proxygen::HTTPMessage", ptr %this1, i32 0, i32 23
  %1 = zext i1 %tobool to i8
  %bf.load = load i8, ptr %upgraded_, align 2
  %bf.shl = shl i8 %1, 3
  %bf.clear = and i8 %bf.load, -9
  %bf.set = or i8 %bf.clear, %bf.shl
  store i8 %bf.set, ptr %upgraded_, align 2
  ret void
}

; Function Attrs: mustprogress nounwind uwtable
define linkonce_odr void @_ZN8proxygen11HTTPMessage12setIsChunkedEb(ptr noundef nonnull align 8 dereferenceable(616) %this, i1 noundef zeroext %chunked) #4 comdat align 2 {
entry:
  %this.addr = alloca ptr, align 8
  %chunked.addr = alloca i8, align 1
  store ptr %this, ptr %this.addr, align 8
  %frombool = zext i1 %chunked to i8
  store i8 %frombool, ptr %chunked.addr, align 1
  %this1 = load ptr, ptr %this.addr, align 8
  %0 = load i8, ptr %chunked.addr, align 1
  %tobool = trunc i8 %0 to i1
  %chunked_ = getelementptr inbounds %"class.proxygen::HTTPMessage", ptr %this1, i32 0, i32 23
  %1 = zext i1 %tobool to i8
  %bf.load = load i8, ptr %chunked_, align 2
  %bf.shl = shl i8 %1, 2
  %bf.clear = and i8 %bf.load, -5
  %bf.set = or i8 %bf.clear, %bf.shl
  store i8 %bf.set, ptr %chunked_, align 2
  ret void
}

; Function Attrs: mustprogress uwtable
define linkonce_odr void @_ZN8proxygen11HTTPHeaders3addENS_14HTTPHeaderCodeEPKc(ptr noundef nonnull align 8 dereferenceable(32) %this, i8 noundef zeroext %code, ptr noundef %value) #3 comdat align 2 {
entry:
  %this.addr = alloca ptr, align 8
  %code.addr = alloca i8, align 1
  %value.addr = alloca ptr, align 8
  %ref.tmp = alloca %"class.folly::Range", align 8
  store ptr %this, ptr %this.addr, align 8
  store i8 %code, ptr %code.addr, align 1
  store ptr %value, ptr %value.addr, align 8
  %this1 = load ptr, ptr %this.addr, align 8
  %0 = load i8, ptr %code.addr, align 1
  %1 = load ptr, ptr %value.addr, align 8
  call void @_ZN5folly5RangeIPKcEC2ES2_(ptr noundef nonnull align 8 dereferenceable(16) %ref.tmp, ptr noundef %1)
  call void @_ZN8proxygen11HTTPHeaders3addIN5folly5RangeIPKcEEEEvNS_14HTTPHeaderCodeEOT_(ptr noundef nonnull align 8 dereferenceable(32) %this1, i8 noundef zeroext %0, ptr noundef nonnull align 8 dereferenceable(16) %ref.tmp)
  ret void
}

; Function Attrs: mustprogress uwtable
define linkonce_odr void @_ZN8proxygen11HTTPHeaders3setENS_14HTTPHeaderCodeERKNSt7__cxx1112basic_stringIcSt11char_traitsIcESaIcEEE(ptr noundef nonnull align 8 dereferenceable(32) %this, i8 noundef zeroext %code, ptr noundef nonnull align 8 dereferenceable(32) %value) #3 comdat align 2 {
entry:
  %this.addr = alloca ptr, align 8
  %code.addr = alloca i8, align 1
  %value.addr = alloca ptr, align 8
  store ptr %this, ptr %this.addr, align 8
  store i8 %code, ptr %code.addr, align 1
  store ptr %value, ptr %value.addr, align 8
  %this1 = load ptr, ptr %this.addr, align 8
  %0 = load i8, ptr %code.addr, align 1
  %call = call noundef zeroext i1 @_ZN8proxygen11HTTPHeaders6removeENS_14HTTPHeaderCodeE(ptr noundef nonnull align 8 dereferenceable(32) %this1, i8 noundef zeroext %0)
  %1 = load i8, ptr %code.addr, align 1
  %2 = load ptr, ptr %value.addr, align 8
  call void @_ZN8proxygen11HTTPHeaders3addIRKNSt7__cxx1112basic_stringIcSt11char_traitsIcESaIcEEEEEvNS_14HTTPHeaderCodeEOT_(ptr noundef nonnull align 8 dereferenceable(32) %this1, i8 noundef zeroext %1, ptr noundef nonnull align 8 dereferenceable(32) %2)
  ret void
}

; Function Attrs: mustprogress uwtable
define linkonce_odr void @_ZN5folly2toINSt7__cxx1112basic_stringIcSt11char_traitsIcESaIcEEEJiEEENSt9enable_ifIXaasr12IsSomeStringIT_EE5valueoonesZT0_Li1Entsr3std7is_sameIS8_19__type_pack_elementIXmisPvDpT0_ELi1EEJvSB_EEEE5valueES8_E4typeEDpRKSA_(ptr noalias sret(%"class.std::__cxx11::basic_string") align 8 %agg.result, ptr noundef nonnull align 4 dereferenceable(4) %vs) #3 comdat personality ptr @__gxx_personality_v0 {
entry:
  %result.ptr = alloca ptr, align 8
  %vs.addr = alloca ptr, align 8
  %nrvo = alloca i1, align 1
  %ref.tmp = alloca ptr, align 8
  %exn.slot = alloca ptr, align 8
  %ehselector.slot = alloca i32, align 4
  store ptr %agg.result, ptr %result.ptr, align 8
  store ptr %vs, ptr %vs.addr, align 8
  store i1 false, ptr %nrvo, align 1
  call void @_ZNSt7__cxx1112basic_stringIcSt11char_traitsIcESaIcEEC1Ev(ptr noundef nonnull align 8 dereferenceable(32) %agg.result) #2
  %0 = load ptr, ptr %vs.addr, align 8
  store ptr %agg.result, ptr %ref.tmp, align 8
  invoke void @_ZN5folly11toAppendFitIJiPNSt7__cxx1112basic_stringIcSt11char_traitsIcESaIcEEEEEENSt9enable_ifIXsr12IsSomeStringINSt14remove_pointerI19__type_pack_elementIXmisPDpT_ELi1EEJSC_EEE4typeEEE5valueEvE4typeEDpRKSB_(ptr noundef nonnull align 4 dereferenceable(4) %0, ptr noundef nonnull align 8 dereferenceable(8) %ref.tmp)
          to label %invoke.cont unwind label %lpad

invoke.cont:                                      ; preds = %entry
  store i1 true, ptr %nrvo, align 1
  %nrvo.val = load i1, ptr %nrvo, align 1
  br i1 %nrvo.val, label %nrvo.skipdtor, label %nrvo.unused

lpad:                                             ; preds = %entry
  %1 = landingpad { ptr, i32 }
          cleanup
  %2 = extractvalue { ptr, i32 } %1, 0
  store ptr %2, ptr %exn.slot, align 8
  %3 = extractvalue { ptr, i32 } %1, 1
  store i32 %3, ptr %ehselector.slot, align 4
  call void @_ZNSt7__cxx1112basic_stringIcSt11char_traitsIcESaIcEED1Ev(ptr noundef nonnull align 8 dereferenceable(32) %agg.result) #2
  br label %eh.resume

nrvo.unused:                                      ; preds = %invoke.cont
  call void @_ZNSt7__cxx1112basic_stringIcSt11char_traitsIcESaIcEED1Ev(ptr noundef nonnull align 8 dereferenceable(32) %agg.result) #2
  br label %nrvo.skipdtor

nrvo.skipdtor:                                    ; preds = %nrvo.unused, %invoke.cont
  ret void

eh.resume:                                        ; preds = %lpad
  %exn = load ptr, ptr %exn.slot, align 8
  %sel = load i32, ptr %ehselector.slot, align 4
  %lpad.val = insertvalue { ptr, i32 } poison, ptr %exn, 0
  %lpad.val1 = insertvalue { ptr, i32 } %lpad.val, i32 %sel, 1
  resume { ptr, i32 } %lpad.val1
}

; Function Attrs: mustprogress uwtable
define void @_ZN8proxygen11HTTPMessage23constructDirectResponseERKSt4pairIhhEi(ptr noundef nonnull align 8 dereferenceable(616) %this, ptr noundef nonnull align 1 dereferenceable(2) %version, i32 noundef %contentLength) #3 align 2 personality ptr @__gxx_personality_v0 {
entry:
  %this.addr = alloca ptr, align 8
  %version.addr = alloca ptr, align 8
  %contentLength.addr = alloca i32, align 4
  %ref.tmp = alloca %"class.std::__cxx11::basic_string", align 8
  %exn.slot = alloca ptr, align 8
  %ehselector.slot = alloca i32, align 4
  store ptr %this, ptr %this.addr, align 8
  store ptr %version, ptr %version.addr, align 8
  store i32 %contentLength, ptr %contentLength.addr, align 4
  %this1 = load ptr, ptr %this.addr, align 8
  %0 = load ptr, ptr %version.addr, align 8
  %first = getelementptr inbounds %"struct.std::pair", ptr %0, i32 0, i32 0
  %1 = load i8, ptr %first, align 1
  %2 = load ptr, ptr %version.addr, align 8
  %second = getelementptr inbounds %"struct.std::pair", ptr %2, i32 0, i32 1
  %3 = load i8, ptr %second, align 1
  call void @_ZN8proxygen11HTTPMessage14setHTTPVersionEhh(ptr noundef nonnull align 8 dereferenceable(616) %this1, i8 noundef zeroext %1, i8 noundef zeroext %3)
  %headers_ = getelementptr inbounds %"class.proxygen::HTTPMessage", ptr %this1, i32 0, i32 9
  call void @_ZN5folly2toINSt7__cxx1112basic_stringIcSt11char_traitsIcESaIcEEEJiEEENSt9enable_ifIXaasr12IsSomeStringIT_EE5valueoonesZT0_Li1Entsr3std7is_sameIS8_19__type_pack_elementIXmisPvDpT0_ELi1EEJvSB_EEEE5valueES8_E4typeEDpRKSA_(ptr sret(%"class.std::__cxx11::basic_string") align 8 %ref.tmp, ptr noundef nonnull align 4 dereferenceable(4) %contentLength.addr)
  invoke void @_ZN8proxygen11HTTPHeaders3setENS_14HTTPHeaderCodeERKNSt7__cxx1112basic_stringIcSt11char_traitsIcESaIcEEE(ptr noundef nonnull align 8 dereferenceable(32) %headers_, i8 noundef zeroext 29, ptr noundef nonnull align 8 dereferenceable(32) %ref.tmp)
          to label %invoke.cont unwind label %lpad

invoke.cont:                                      ; preds = %entry
  call void @_ZNSt7__cxx1112basic_stringIcSt11char_traitsIcESaIcEED1Ev(ptr noundef nonnull align 8 dereferenceable(32) %ref.tmp) #2
  %headers_2 = getelementptr inbounds %"class.proxygen::HTTPMessage", ptr %this1, i32 0, i32 9
  %call = call noundef zeroext i1 @_ZNK8proxygen11HTTPHeaders6existsENS_14HTTPHeaderCodeE(ptr noundef nonnull align 8 dereferenceable(32) %headers_2, i8 noundef zeroext 31)
  br i1 %call, label %if.end, label %if.then

if.then:                                          ; preds = %invoke.cont
  %headers_3 = getelementptr inbounds %"class.proxygen::HTTPMessage", ptr %this1, i32 0, i32 9
  call void @_ZN8proxygen11HTTPHeaders3addENS_14HTTPHeaderCodeEPKc(ptr noundef nonnull align 8 dereferenceable(32) %headers_3, i8 noundef zeroext 31, ptr noundef @.str.9)
  br label %if.end

lpad:                                             ; preds = %entry
  %4 = landingpad { ptr, i32 }
          cleanup
  %5 = extractvalue { ptr, i32 } %4, 0
  store ptr %5, ptr %exn.slot, align 8
  %6 = extractvalue { ptr, i32 } %4, 1
  store i32 %6, ptr %ehselector.slot, align 4
  call void @_ZNSt7__cxx1112basic_stringIcSt11char_traitsIcESaIcEED1Ev(ptr noundef nonnull align 8 dereferenceable(32) %ref.tmp) #2
  br label %eh.resume

if.end:                                           ; preds = %if.then, %invoke.cont
  call void @_ZN8proxygen11HTTPMessage12setIsChunkedEb(ptr noundef nonnull align 8 dereferenceable(616) %this1, i1 noundef zeroext false)
  call void @_ZN8proxygen11HTTPMessage13setIsUpgradedEb(ptr noundef nonnull align 8 dereferenceable(616) %this1, i1 noundef zeroext false)
  ret void

eh.resume:                                        ; preds = %lpad
  %exn = load ptr, ptr %exn.slot, align 8
  %sel = load i32, ptr %ehselector.slot, align 4
  %lpad.val = insertvalue { ptr, i32 } poison, ptr %exn, 0
  %lpad.val4 = insertvalue { ptr, i32 } %lpad.val, i32 %sel, 1
  resume { ptr, i32 } %lpad.val4
}