; Function Attrs: mustprogress uwtable
define void @_ZN8proxygen11HTTPMessage23constructDirectResponseERKSt4pairIhhEi(ptr noundef nonnull align 8 dereferenceable(616) %this, ptr nocapture noundef nonnull readonly align 1 dereferenceable(2) %version, i32 noundef %contentLength) local_unnamed_addr #2 align 2 personality ptr @__gxx_personality_v0 {
entry:
  %ref.tmp.i3 = alloca %"class.folly::Range", align 8
  %ref.tmp.i = alloca ptr, align 8
  %contentLength.addr = alloca i32, align 4
  %ref.tmp = alloca %"class.std::__cxx11::basic_string", align 8
  store i32 %contentLength, ptr %contentLength.addr, align 4
  %0 = load i8, ptr %version, align 1
  %second = getelementptr inbounds i8, ptr %version, i64 1
  %1 = load i8, ptr %second, align 1
  tail call void @_ZN8proxygen11HTTPMessage14setHTTPVersionEhh(ptr noundef nonnull align 8 dereferenceable(616) %this, i8 noundef zeroext %0, i8 noundef zeroext %1)
  %headers_ = getelementptr inbounds i8, ptr %this, i64 480
  call void @llvm.lifetime.start.p0(i64 8, ptr nonnull %ref.tmp.i)
  call void @_ZNSt7__cxx1112basic_stringIcSt11char_traitsIcESaIcEEC1Ev(ptr noundef nonnull align 8 dereferenceable(32) %ref.tmp) #23
  store ptr %ref.tmp, ptr %ref.tmp.i, align 8, !noalias !62
  invoke void @_ZN5folly11toAppendFitIJiPNSt7__cxx1112basic_stringIcSt11char_traitsIcESaIcEEEEEENSt9enable_ifIXsr12IsSomeStringINSt14remove_pointerI19__type_pack_elementIXmisPDpT_ELi1EEJSC_EEE4typeEEE5valueEvE4typeEDpRKSB_(ptr noundef nonnull align 4 dereferenceable(4) %contentLength.addr, ptr noundef nonnull align 8 dereferenceable(8) %ref.tmp.i)
          to label %_ZN5folly2toINSt7__cxx1112basic_stringIcSt11char_traitsIcESaIcEEEJiEEENSt9enable_ifIXaasr12IsSomeStringIT_EE5valueoonesZT0_Li1Entsr3std7is_sameIS8_19__type_pack_elementIXmisPvDpT0_ELi1EEJvSB_EEEE5valueES8_E4typeEDpRKSA_.exit unwind label %lpad.i

common.resume:                                    ; preds = %lpad, %lpad.i
  %common.resume.op = phi { ptr, i32 } [ %2, %lpad.i ], [ %3, %lpad ]
  call void @_ZNSt7__cxx1112basic_stringIcSt11char_traitsIcESaIcEED1Ev(ptr noundef nonnull align 8 dereferenceable(32) %ref.tmp) #23
  resume { ptr, i32 } %common.resume.op

lpad.i:                                           ; preds = %entry
  %2 = landingpad { ptr, i32 }
          cleanup
  br label %common.resume

_ZN5folly2toINSt7__cxx1112basic_stringIcSt11char_traitsIcESaIcEEEJiEEENSt9enable_ifIXaasr12IsSomeStringIT_EE5valueoonesZT0_Li1Entsr3std7is_sameIS8_19__type_pack_elementIXmisPvDpT0_ELi1EEJvSB_EEEE5valueES8_E4typeEDpRKSA_.exit: ; preds = %entry
  call void @llvm.lifetime.end.p0(i64 8, ptr nonnull %ref.tmp.i)
  %call.i2 = invoke noundef zeroext i1 @_ZN8proxygen11HTTPHeaders6removeENS_14HTTPHeaderCodeE(ptr noundef nonnull align 8 dereferenceable(32) %headers_, i8 noundef zeroext 29)
          to label %call.i.noexc unwind label %lpad

call.i.noexc:                                     ; preds = %_ZN5folly2toINSt7__cxx1112basic_stringIcSt11char_traitsIcESaIcEEEJiEEENSt9enable_ifIXaasr12IsSomeStringIT_EE5valueoonesZT0_Li1Entsr3std7is_sameIS8_19__type_pack_elementIXmisPvDpT0_ELi1EEJvSB_EEEE5valueES8_E4typeEDpRKSA_.exit
  invoke void @_ZN8proxygen11HTTPHeaders3addIRKNSt7__cxx1112basic_stringIcSt11char_traitsIcESaIcEEEEEvNS_14HTTPHeaderCodeEOT_(ptr noundef nonnull align 8 dereferenceable(32) %headers_, i8 noundef zeroext 29, ptr noundef nonnull align 8 dereferenceable(32) %ref.tmp)
          to label %invoke.cont unwind label %lpad

invoke.cont:                                      ; preds = %call.i.noexc
  call void @_ZNSt7__cxx1112basic_stringIcSt11char_traitsIcESaIcEED1Ev(ptr noundef nonnull align 8 dereferenceable(32) %ref.tmp) #23
  %call = call noundef zeroext i1 @_ZNK8proxygen11HTTPHeaders6existsENS_14HTTPHeaderCodeE(ptr noundef nonnull align 8 dereferenceable(32) %headers_, i8 noundef zeroext 31)
  br i1 %call, label %if.end, label %if.then

if.then:                                          ; preds = %invoke.cont
  call void @llvm.lifetime.start.p0(i64 16, ptr nonnull %ref.tmp.i3)
  store ptr @.str.9, ptr %ref.tmp.i3, align 8
  %e_.i.i = getelementptr inbounds i8, ptr %ref.tmp.i3, i64 8
  store ptr getelementptr inbounds ([11 x i8], ptr @.str.9, i64 0, i64 10), ptr %e_.i.i, align 8
  %call.i.i.i = call noundef ptr @_ZN8proxygen17HTTPCommonHeaders17getPointerToTableB5cxx11ENS_25HTTPCommonHeaderTableTypeE(i8 noundef zeroext 0)
  %add.ptr.i.i.i = getelementptr inbounds i8, ptr %call.i.i.i, i64 992
  call void @_ZN8proxygen11HTTPHeaders17emplace_back_implIN5folly5RangeIPKcEEEEvNS_14HTTPHeaderCodeEPNSt7__cxx1112basic_stringIcSt11char_traitsIcESaIcEEEOT_(ptr noundef nonnull align 8 dereferenceable(32) %headers_, i8 noundef zeroext 31, ptr noundef nonnull %add.ptr.i.i.i, ptr noundef nonnull align 8 dereferenceable(16) %ref.tmp.i3)
  call void @llvm.lifetime.end.p0(i64 16, ptr nonnull %ref.tmp.i3)
  br label %if.end

lpad:                                             ; preds = %call.i.noexc, %_ZN5folly2toINSt7__cxx1112basic_stringIcSt11char_traitsIcESaIcEEEJiEEENSt9enable_ifIXaasr12IsSomeStringIT_EE5valueoonesZT0_Li1Entsr3std7is_sameIS8_19__type_pack_elementIXmisPvDpT0_ELi1EEJvSB_EEEE5valueES8_E4typeEDpRKSA_.exit
  %3 = landingpad { ptr, i32 }
          cleanup
  br label %common.resume

if.end:                                           ; preds = %if.then, %invoke.cont
  %chunked_.i = getelementptr inbounds i8, ptr %this, i64 610
  %bf.load.i = load i8, ptr %chunked_.i, align 2
  %bf.clear.i5 = and i8 %bf.load.i, -13
  store i8 %bf.clear.i5, ptr %chunked_.i, align 2
  ret void
}